target datalayout = "e-m:e-p270:32:32-p271:32:32-p272:64:64-i64:64-i128:128-f80:128-n8:16:32:64-S128"
target triple = "x86_64-pc-linux-gnu"

%struct.nameData = type { [64 x i8] }
%struct.FormData_pg_am = type { i32, %struct.nameData, i32, i8 }
%struct.HeapTupleData = type { i32, %struct.ItemPointerData, i32, ptr }
%struct.ItemPointerData = type { %struct.BlockIdData, i16 }
%struct.BlockIdData = type { i16, i16 }
%struct.HeapTupleHeaderData = type { %union.anon, %struct.ItemPointerData, i16, i16, i8, [0 x i8] }
%union.anon = type { %struct.HeapTupleFields }
%struct.HeapTupleFields = type { i32, i32, %union.anon.0 }
%union.anon.0 = type { i32 }
%struct.FormData_pg_opclass = type { i32, i32, %struct.nameData, i32, i32, i32, i32, i8, i32 }

@.str.1 = private unnamed_addr constant [14 x i8] c"opclasscmds.c\00", align 1
@.str.15 = private unnamed_addr constant [41 x i8] c"cache lookup failed for access method %u\00", align 1
@__func__.OpClassCacheLookup = private unnamed_addr constant [19 x i8] c"OpClassCacheLookup\00", align 1
@.str.17 = private unnamed_addr constant [58 x i8] c"operator class \22%s\22 does not exist for access method \22%s\22\00", align 1

; Function Attrs: inlinehint nounwind uwtable
define internal i64 @PointerGetDatum(ptr noundef %0) #2 {
  %2 = alloca ptr, align 8
  store ptr %0, ptr %2, align 8
  %3 = load ptr, ptr %2, align 8
  %4 = ptrtoint ptr %3 to i64
  ret i64 %4
}

; Function Attrs: inlinehint nounwind uwtable
define internal i64 @ObjectIdGetDatum(i32 noundef %0) #2 {
  %2 = alloca i32, align 4
  store i32 %0, ptr %2, align 4
  %3 = load i32, ptr %2, align 4
  %4 = zext i32 %3 to i64
  ret i64 %4
}

; Function Attrs: inlinehint nounwind uwtable
define internal ptr @GETSTRUCT(ptr noundef %0) #2 {
  %2 = alloca ptr, align 8
  store ptr %0, ptr %2, align 8
  %3 = load ptr, ptr %2, align 8
  %4 = getelementptr inbounds nuw %struct.HeapTupleData, ptr %3, i32 0, i32 3
  %5 = load ptr, ptr %4, align 8
  %6 = load ptr, ptr %2, align 8
  %7 = getelementptr inbounds nuw %struct.HeapTupleData, ptr %6, i32 0, i32 3
  %8 = load ptr, ptr %7, align 8
  %9 = getelementptr inbounds nuw %struct.HeapTupleHeaderData, ptr %8, i32 0, i32 4
  %10 = load i8, ptr %9, align 2
  %11 = zext i8 %10 to i32
  %12 = sext i32 %11 to i64
  %13 = getelementptr inbounds i8, ptr %5, i64 %12
  ret ptr %13
}

; Function Attrs: nounwind uwtable
define internal ptr @OpClassCacheLookup(i32 noundef %0, ptr noundef %1, i1 noundef zeroext %2) #0 {
  %4 = alloca i32, align 4
  %5 = alloca ptr, align 8
  %6 = alloca i8, align 1
  %7 = alloca ptr, align 8
  %8 = alloca ptr, align 8
  %9 = alloca ptr, align 8
  %10 = alloca i32, align 4
  %11 = alloca i32, align 4
  %12 = alloca ptr, align 8
  store i32 %0, ptr %4, align 4
  store ptr %1, ptr %5, align 8
  %13 = zext i1 %2 to i8
  store i8 %13, ptr %6, align 1
  call void @llvm.lifetime.start.p0(i64 8, ptr %7) #7
  call void @llvm.lifetime.start.p0(i64 8, ptr %8) #7
  call void @llvm.lifetime.start.p0(i64 8, ptr %9) #7
  %14 = load ptr, ptr %5, align 8
  call void @DeconstructQualifiedName(ptr noundef %14, ptr noundef %7, ptr noundef %8)
  %15 = load ptr, ptr %7, align 8
  %16 = icmp ne ptr %15, null
  br i1 %16, label %17, label %34

17:                                               ; preds = %3
  call void @llvm.lifetime.start.p0(i64 4, ptr %10) #7
  %18 = load ptr, ptr %7, align 8
  %19 = load i8, ptr %6, align 1, !range !4, !noundef !5
  %20 = trunc i8 %19 to i1
  %21 = call i32 @LookupExplicitNamespace(ptr noundef %18, i1 noundef zeroext %20)
  store i32 %21, ptr %10, align 4
  %22 = load i32, ptr %10, align 4
  %23 = icmp ne i32 %22, 0
  br i1 %23, label %25, label %24

24:                                               ; preds = %17
  store ptr null, ptr %9, align 8
  br label %33

25:                                               ; preds = %17
  %26 = load i32, ptr %4, align 4
  %27 = call i64 @ObjectIdGetDatum(i32 noundef %26)
  %28 = load ptr, ptr %8, align 8
  %29 = call i64 @PointerGetDatum(ptr noundef %28)
  %30 = load i32, ptr %10, align 4
  %31 = call i64 @ObjectIdGetDatum(i32 noundef %30)
  %32 = call ptr @SearchSysCache3(i32 noundef 13, i64 noundef %27, i64 noundef %29, i64 noundef %31)
  store ptr %32, ptr %9, align 8
  br label %33

33:                                               ; preds = %25, %24
  call void @llvm.lifetime.end.p0(i64 4, ptr %10) #7
  br label %46

34:                                               ; preds = %3
  call void @llvm.lifetime.start.p0(i64 4, ptr %11) #7
  %35 = load i32, ptr %4, align 4
  %36 = load ptr, ptr %8, align 8
  %37 = call i32 @OpclassnameGetOpcid(i32 noundef %35, ptr noundef %36)
  store i32 %37, ptr %11, align 4
  %38 = load i32, ptr %11, align 4
  %39 = icmp ne i32 %38, 0
  br i1 %39, label %41, label %40

40:                                               ; preds = %34
  store ptr null, ptr %9, align 8
  br label %45

41:                                               ; preds = %34
  %42 = load i32, ptr %11, align 4
  %43 = call i64 @ObjectIdGetDatum(i32 noundef %42)
  %44 = call ptr @SearchSysCache1(i32 noundef 14, i64 noundef %43)
  store ptr %44, ptr %9, align 8
  br label %45

45:                                               ; preds = %41, %40
  call void @llvm.lifetime.end.p0(i64 4, ptr %11) #7
  br label %46

46:                                               ; preds = %45, %33
  %47 = load ptr, ptr %9, align 8
  %48 = icmp ne ptr %47, null
  br i1 %48, label %89, label %49

49:                                               ; preds = %46
  %50 = load i8, ptr %6, align 1, !range !4, !noundef !5
  %51 = trunc i8 %50 to i1
  br i1 %51, label %89, label %52

52:                                               ; preds = %49
  call void @llvm.lifetime.start.p0(i64 8, ptr %12) #7
  %53 = load i32, ptr %4, align 4
  %54 = call i64 @ObjectIdGetDatum(i32 noundef %53)
  %55 = call ptr @SearchSysCache1(i32 noundef 2, i64 noundef %54)
  store ptr %55, ptr %12, align 8
  %56 = load ptr, ptr %12, align 8
  %57 = icmp ne ptr %56, null
  br i1 %57, label %70, label %58

58:                                               ; preds = %52
  br label %59

59:                                               ; preds = %58
  br i1 true, label %60, label %62

60:                                               ; preds = %59
  %61 = call zeroext i1 @errstart_cold(i32 noundef 21, ptr noundef null) #8
  br i1 %61, label %64, label %67

62:                                               ; preds = %59
  %63 = call zeroext i1 @errstart(i32 noundef 21, ptr noundef null)
  br i1 %63, label %64, label %67

64:                                               ; preds = %62, %60
  %65 = load i32, ptr %4, align 4
  %66 = call i32 (ptr, ...) @errmsg_internal(ptr noundef @.str.15, i32 noundef %65)
  call void @errfinish(ptr noundef @.str.1, i32 noundef 202, ptr noundef @__func__.OpClassCacheLookup)
  br label %67

67:                                               ; preds = %64, %62, %60
  unreachable

68:                                               ; No predecessors!
  br label %69

69:                                               ; preds = %68
  br label %70

70:                                               ; preds = %69, %52
  br label %71

71:                                               ; preds = %70
  br i1 true, label %72, label %74

72:                                               ; preds = %71
  %73 = call zeroext i1 @errstart_cold(i32 noundef 21, ptr noundef null) #8
  br i1 %73, label %76, label %86

74:                                               ; preds = %71
  %75 = call zeroext i1 @errstart(i32 noundef 21, ptr noundef null)
  br i1 %75, label %76, label %86

76:                                               ; preds = %74, %72
  %77 = call i32 @errcode(i32 noundef 67137668)
  %78 = load ptr, ptr %5, align 8
  %79 = call ptr @NameListToString(ptr noundef %78)
  %80 = load ptr, ptr %12, align 8
  %81 = call ptr @GETSTRUCT(ptr noundef %80)
  %82 = getelementptr inbounds nuw %struct.FormData_pg_am, ptr %81, i32 0, i32 1
  %83 = getelementptr inbounds nuw %struct.nameData, ptr %82, i32 0, i32 0
  %84 = getelementptr inbounds [64 x i8], ptr %83, i64 0, i64 0
  %85 = call i32 (ptr, ...) @errmsg(ptr noundef @.str.17, ptr noundef %79, ptr noundef %84)
  call void @errfinish(ptr noundef @.str.1, i32 noundef 207, ptr noundef @__func__.OpClassCacheLookup)
  br label %86

86:                                               ; preds = %76, %74, %72
  unreachable

87:                                               ; No predecessors!
  br label %88

88:                                               ; preds = %87
  call void @llvm.lifetime.end.p0(i64 8, ptr %12) #7
  br label %89

89:                                               ; preds = %88, %49, %46
  %90 = load ptr, ptr %9, align 8
  call void @llvm.lifetime.end.p0(i64 8, ptr %9) #7
  call void @llvm.lifetime.end.p0(i64 8, ptr %8) #7
  call void @llvm.lifetime.end.p0(i64 8, ptr %7) #7
  ret ptr %90
}

; Function Attrs: nounwind uwtable
define dso_local i32 @get_opclass_oid(i32 noundef %0, ptr noundef %1, i1 noundef zeroext %2) #0 {
  %4 = alloca i32, align 4
  %5 = alloca i32, align 4
  %6 = alloca ptr, align 8
  %7 = alloca i8, align 1
  %8 = alloca ptr, align 8
  %9 = alloca ptr, align 8
  %10 = alloca i32, align 4
  %11 = alloca i32, align 4
  store i32 %0, ptr %5, align 4
  store ptr %1, ptr %6, align 8
  %12 = zext i1 %2 to i8
  store i8 %12, ptr %7, align 1
  call void @llvm.lifetime.start.p0(i64 8, ptr %8) #7
  call void @llvm.lifetime.start.p0(i64 8, ptr %9) #7
  call void @llvm.lifetime.start.p0(i64 4, ptr %10) #7
  %13 = load i32, ptr %5, align 4
  %14 = load ptr, ptr %6, align 8
  %15 = load i8, ptr %7, align 1, !range !4, !noundef !5
  %16 = trunc i8 %15 to i1
  %17 = call ptr @OpClassCacheLookup(i32 noundef %13, ptr noundef %14, i1 noundef zeroext %16)
  store ptr %17, ptr %8, align 8
  %18 = load ptr, ptr %8, align 8
  %19 = icmp ne ptr %18, null
  br i1 %19, label %21, label %20

20:                                               ; preds = %3
  store i32 0, ptr %4, align 4
  store i32 1, ptr %11, align 4
  br label %29

21:                                               ; preds = %3
  %22 = load ptr, ptr %8, align 8
  %23 = call ptr @GETSTRUCT(ptr noundef %22)
  store ptr %23, ptr %9, align 8
  %24 = load ptr, ptr %9, align 8
  %25 = getelementptr inbounds nuw %struct.FormData_pg_opclass, ptr %24, i32 0, i32 0
  %26 = load i32, ptr %25, align 4
  store i32 %26, ptr %10, align 4
  %27 = load ptr, ptr %8, align 8
  call void @ReleaseSysCache(ptr noundef %27)
  %28 = load i32, ptr %10, align 4
  store i32 %28, ptr %4, align 4
  store i32 1, ptr %11, align 4
  br label %29

29:                                               ; preds = %21, %20
  call void @llvm.lifetime.end.p0(i64 4, ptr %10) #7
  call void @llvm.lifetime.end.p0(i64 8, ptr %9) #7
  call void @llvm.lifetime.end.p0(i64 8, ptr %8) #7
  %30 = load i32, ptr %4, align 4
  ret i32 %30
}